; Function Attrs: nounwind uwtable
define noundef i32 @Pla_ManFxPerformSimple(i32 noundef %0) local_unnamed_addr #0 {
  %2 = alloca [100 x i8], align 16
  call void @llvm.lifetime.start.p0(i64 100, ptr nonnull %2) #16
  %3 = tail call ptr @Pla_ManFxPrepare(i32 noundef %0)
  %4 = call i32 (ptr, ptr, ...) @sprintf(ptr noundef nonnull dereferenceable(1) %2, ptr noundef nonnull dereferenceable(1) @.str.31, i32 noundef %0) #16
  call void @Pla_ManDumpPla(ptr noundef %3, ptr noundef nonnull %2)
  %5 = getelementptr inbounds nuw i8, ptr %3, i64 40
  %6 = getelementptr inbounds nuw i8, ptr %3, i64 48
  %7 = load ptr, ptr %6, align 8, !tbaa !20
  %.not.i.i = icmp eq ptr %7, null
  br i1 %.not.i.i, label %Vec_IntErase.exit.i, label %8

8:                                                ; preds = %1
  call void @free(ptr noundef nonnull %7) #16
  store ptr null, ptr %6, align 8, !tbaa !20
  br label %Vec_IntErase.exit.i

Vec_IntErase.exit.i:                              ; preds = %8, %1
  %9 = getelementptr inbounds nuw i8, ptr %3, i64 44
  store i32 0, ptr %9, align 4, !tbaa !18
  store i32 0, ptr %5, align 8, !tbaa !39
  %10 = getelementptr inbounds nuw i8, ptr %3, i64 56
  %11 = getelementptr inbounds nuw i8, ptr %3, i64 64
  %12 = load ptr, ptr %11, align 8, !tbaa !20
  %.not.i17.i = icmp eq ptr %12, null
  br i1 %.not.i17.i, label %Vec_IntErase.exit18.i, label %13

13:                                               ; preds = %Vec_IntErase.exit.i
  call void @free(ptr noundef nonnull %12) #16
  store ptr null, ptr %11, align 8, !tbaa !20
  br label %Vec_IntErase.exit18.i

Vec_IntErase.exit18.i:                            ; preds = %13, %Vec_IntErase.exit.i
  %14 = getelementptr inbounds nuw i8, ptr %3, i64 60
  store i32 0, ptr %14, align 4, !tbaa !18
  store i32 0, ptr %10, align 8, !tbaa !39
  %15 = getelementptr inbounds nuw i8, ptr %3, i64 72
  %16 = getelementptr inbounds nuw i8, ptr %3, i64 80
  %17 = load ptr, ptr %16, align 8, !tbaa !38
  %.not.i19.i = icmp eq ptr %17, null
  br i1 %.not.i19.i, label %Vec_WrdErase.exit.i, label %18

18:                                               ; preds = %Vec_IntErase.exit18.i
  call void @free(ptr noundef nonnull %17) #16
  store ptr null, ptr %16, align 8, !tbaa !38
  br label %Vec_WrdErase.exit.i

Vec_WrdErase.exit.i:                              ; preds = %18, %Vec_IntErase.exit18.i
  %19 = getelementptr inbounds nuw i8, ptr %3, i64 76
  store i32 0, ptr %19, align 4, !tbaa !36
  store i32 0, ptr %15, align 8, !tbaa !37
  %20 = getelementptr inbounds nuw i8, ptr %3, i64 88
  %21 = getelementptr inbounds nuw i8, ptr %3, i64 96
  %22 = load ptr, ptr %21, align 8, !tbaa !38
  %.not.i20.i = icmp eq ptr %22, null
  br i1 %.not.i20.i, label %Vec_WrdErase.exit21.i, label %23

23:                                               ; preds = %Vec_WrdErase.exit.i
  call void @free(ptr noundef nonnull %22) #16
  store ptr null, ptr %21, align 8, !tbaa !38
  br label %Vec_WrdErase.exit21.i

Vec_WrdErase.exit21.i:                            ; preds = %23, %Vec_WrdErase.exit.i
  %24 = getelementptr inbounds nuw i8, ptr %3, i64 92
  store i32 0, ptr %24, align 4, !tbaa !36
  store i32 0, ptr %20, align 8, !tbaa !37
  %25 = getelementptr inbounds nuw i8, ptr %3, i64 104
  %26 = load i32, ptr %25, align 8, !tbaa !55
  %27 = icmp sgt i32 %26, 0
  %28 = getelementptr inbounds nuw i8, ptr %3, i64 112
  %.pre.i.i = load ptr, ptr %28, align 8, !tbaa !17
  br i1 %27, label %.lr.ph.i.i.preheader, label %._crit_edge.i.i

.lr.ph.i.i.preheader:                             ; preds = %Vec_WrdErase.exit21.i
  %29 = zext nneg i32 %26 to i64
  br label %.lr.ph.i.i

.lr.ph.i.i:                                       ; preds = %.lr.ph.i.i.preheader, %33
  %indvars.iv.i.i = phi i64 [ %indvars.iv.next.i.i, %33 ], [ 0, %.lr.ph.i.i.preheader ]
  %30 = getelementptr inbounds nuw %struct.Vec_Int_t_, ptr %.pre.i.i, i64 %indvars.iv.i.i, i32 2
  %31 = load ptr, ptr %30, align 8, !tbaa !20
  %.not15.i.i = icmp eq ptr %31, null
  br i1 %.not15.i.i, label %33, label %32

32:                                               ; preds = %.lr.ph.i.i
  call void @free(ptr noundef nonnull %31) #16
  store ptr null, ptr %30, align 8, !tbaa !20
  br label %33

33:                                               ; preds = %32, %.lr.ph.i.i
  %indvars.iv.next.i.i = add nuw nsw i64 %indvars.iv.i.i, 1
  %exitcond.not = icmp eq i64 %indvars.iv.next.i.i, %29
  br i1 %exitcond.not, label %._crit_edge.thread.i.i, label %.lr.ph.i.i, !llvm.loop !58

._crit_edge.i.i:                                  ; preds = %Vec_WrdErase.exit21.i
  %.not.i22.i = icmp eq ptr %.pre.i.i, null
  br i1 %.not.i22.i, label %Vec_WecErase.exit.i, label %._crit_edge.thread.i.i

._crit_edge.thread.i.i:                           ; preds = %33, %._crit_edge.i.i
  call void @free(ptr noundef nonnull %.pre.i.i) #16
  store ptr null, ptr %28, align 8, !tbaa !17
  br label %Vec_WecErase.exit.i

Vec_WecErase.exit.i:                              ; preds = %._crit_edge.thread.i.i, %._crit_edge.i.i
  %34 = getelementptr inbounds nuw i8, ptr %3, i64 108
  store i32 0, ptr %34, align 4, !tbaa !16
  %35 = getelementptr inbounds nuw i8, ptr %3, i64 120
  %36 = load i32, ptr %35, align 8, !tbaa !55
  %37 = icmp sgt i32 %36, 0
  %38 = getelementptr inbounds nuw i8, ptr %3, i64 128
  %.pre.i23.i = load ptr, ptr %38, align 8, !tbaa !17
  br i1 %37, label %.lr.ph.i27.i.preheader, label %._crit_edge.i24.i

.lr.ph.i27.i.preheader:                           ; preds = %Vec_WecErase.exit.i
  %39 = zext nneg i32 %36 to i64
  br label %.lr.ph.i27.i

.lr.ph.i27.i:                                     ; preds = %.lr.ph.i27.i.preheader, %43
  %indvars.iv.i28.i = phi i64 [ %indvars.iv.next.i31.i, %43 ], [ 0, %.lr.ph.i27.i.preheader ]
  %40 = getelementptr inbounds nuw %struct.Vec_Int_t_, ptr %.pre.i23.i, i64 %indvars.iv.i28.i, i32 2
  %41 = load ptr, ptr %40, align 8, !tbaa !20
  %.not15.i29.i = icmp eq ptr %41, null
  br i1 %.not15.i29.i, label %43, label %42

42:                                               ; preds = %.lr.ph.i27.i
  call void @free(ptr noundef nonnull %41) #16
  store ptr null, ptr %40, align 8, !tbaa !20
  br label %43

43:                                               ; preds = %42, %.lr.ph.i27.i
  %indvars.iv.next.i31.i = add nuw nsw i64 %indvars.iv.i28.i, 1
  %exitcond3.not = icmp eq i64 %indvars.iv.next.i31.i, %39
  br i1 %exitcond3.not, label %._crit_edge.thread.i26.i, label %.lr.ph.i27.i, !llvm.loop !58

._crit_edge.i24.i:                                ; preds = %Vec_WecErase.exit.i
  %.not.i25.i = icmp eq ptr %.pre.i23.i, null
  br i1 %.not.i25.i, label %Vec_WecErase.exit32.i, label %._crit_edge.thread.i26.i

._crit_edge.thread.i26.i:                         ; preds = %43, %._crit_edge.i24.i
  call void @free(ptr noundef nonnull %.pre.i23.i) #16
  br label %Vec_WecErase.exit32.i

Vec_WecErase.exit32.i:                            ; preds = %._crit_edge.thread.i26.i, %._crit_edge.i24.i
  %44 = getelementptr inbounds nuw i8, ptr %3, i64 144
  %45 = load ptr, ptr %44, align 8, !tbaa !20
  %.not.i33.i = icmp eq ptr %45, null
  br i1 %.not.i33.i, label %Vec_IntErase.exit34.i, label %46

46:                                               ; preds = %Vec_WecErase.exit32.i
  call void @free(ptr noundef nonnull %45) #16
  br label %Vec_IntErase.exit34.i

Vec_IntErase.exit34.i:                            ; preds = %46, %Vec_WecErase.exit32.i
  %47 = load ptr, ptr %3, align 8, !tbaa !26
  %.not.i = icmp eq ptr %47, null
  br i1 %.not.i, label %49, label %48

48:                                               ; preds = %Vec_IntErase.exit34.i
  call void @free(ptr noundef nonnull %47) #16
  br label %49

49:                                               ; preds = %48, %Vec_IntErase.exit34.i
  %50 = getelementptr inbounds nuw i8, ptr %3, i64 8
  %51 = load ptr, ptr %50, align 8, !tbaa !50
  %.not16.i = icmp eq ptr %51, null
  br i1 %.not16.i, label %Pla_ManFree.exit, label %52

52:                                               ; preds = %49
  call void @free(ptr noundef nonnull %51) #16
  br label %Pla_ManFree.exit

Pla_ManFree.exit:                                 ; preds = %49, %52
  call void @free(ptr noundef nonnull %3) #16
  call void @llvm.lifetime.end.p0(i64 100, ptr nonnull %2) #16
  ret i32 1
}